; Function Attrs: nounwind sspstrong uwtable
define hidden range(i64 1, 0) i64 @rb_big_hash(i64 noundef %0) local_unnamed_addr #0 {
  %2 = inttoptr i64 %0 to ptr
  %3 = load i64, ptr %2, align 8, !tbaa !11
  %4 = and i64 %3, 16384
  %.not.i = icmp eq i64 %4, 0
  br i1 %.not.i, label %5, label %10

5:                                                ; preds = %1
  %6 = getelementptr inbounds nuw i8, ptr %2, i64 24
  %7 = load ptr, ptr %6, align 8, !tbaa !13
  %8 = getelementptr inbounds nuw i8, ptr %2, i64 16
  %9 = load i64, ptr %8, align 8, !tbaa !13
  br label %BIGNUM_LEN.exit

10:                                               ; preds = %1
  %11 = getelementptr inbounds nuw i8, ptr %2, i64 16
  %12 = lshr i64 %3, 15
  %13 = and i64 %12, 7
  br label %BIGNUM_LEN.exit

BIGNUM_LEN.exit:                                  ; preds = %5, %10
  %.0.i8 = phi ptr [ %11, %10 ], [ %7, %5 ]
  %.0.i5 = phi i64 [ %13, %10 ], [ %9, %5 ]
  %14 = shl i64 %.0.i5, 2
  %15 = tail call i64 @rb_memhash(ptr noundef %.0.i8, i64 noundef %14) #27
  %16 = load i64, ptr %2, align 8, !tbaa !11
  %17 = lshr i64 %16, 13
  %.lobit = and i64 %17, 1
  %.masked = and i64 %15, 4611686018427387903
  %18 = xor i64 %.lobit, %.masked
  %19 = icmp slt i64 %15, 0
  %masksel.i = select i1 %19, i64 -4611686018427387904, i64 0
  %.0.i6 = or disjoint i64 %18, %masksel.i
  %20 = shl nsw i64 %.0.i6, 1
  %21 = or disjoint i64 %20, 1
  ret i64 %21
}